target datalayout = "e-m:e-p270:32:32-p271:32:32-p272:64:64-i64:64-i128:128-f80:128-n8:16:32:64-S128"
target triple = "x86_64-pc-linux-gnu"

%union.anon = type { i32 }
%struct.cdf_directory_t = type { [32 x i16], i16, i8, i8, i32, i32, i32, [2 x i64], i32, i64, i64, i32, i32, i32 }
%struct.cdf_dir_t = type { ptr, i64 }

@cdf_bo = internal global %union.anon zeroinitializer, align 4

; Function Attrs: nounwind uwtable
define internal zeroext i16 @_cdf_tole2(i16 noundef zeroext %0) #0 {
  %2 = alloca i16, align 2
  %3 = alloca i16, align 2
  %4 = alloca ptr, align 8
  %5 = alloca ptr, align 8
  store i16 %0, ptr %2, align 2, !tbaa !4
  call void @llvm.lifetime.start.p0(i64 2, ptr %3) #13
  call void @llvm.lifetime.start.p0(i64 8, ptr %4) #13
  %6 = ptrtoint ptr %2 to i64
  %7 = inttoptr i64 %6 to ptr
  %8 = ptrtoint ptr %7 to i64
  %9 = inttoptr i64 %8 to ptr
  store ptr %9, ptr %4, align 8, !tbaa !9
  call void @llvm.lifetime.start.p0(i64 8, ptr %5) #13
  %10 = ptrtoint ptr %3 to i64
  %11 = inttoptr i64 %10 to ptr
  %12 = ptrtoint ptr %11 to i64
  %13 = inttoptr i64 %12 to ptr
  store ptr %13, ptr %5, align 8, !tbaa !9
  %14 = load ptr, ptr %4, align 8, !tbaa !9
  %15 = getelementptr inbounds i8, ptr %14, i64 1
  %16 = load i8, ptr %15, align 1, !tbaa !8
  %17 = load ptr, ptr %5, align 8, !tbaa !9
  %18 = getelementptr inbounds i8, ptr %17, i64 0
  store i8 %16, ptr %18, align 1, !tbaa !8
  %19 = load ptr, ptr %4, align 8, !tbaa !9
  %20 = getelementptr inbounds i8, ptr %19, i64 0
  %21 = load i8, ptr %20, align 1, !tbaa !8
  %22 = load ptr, ptr %5, align 8, !tbaa !9
  %23 = getelementptr inbounds i8, ptr %22, i64 1
  store i8 %21, ptr %23, align 1, !tbaa !8
  %24 = load i16, ptr %3, align 2, !tbaa !4
  call void @llvm.lifetime.end.p0(i64 8, ptr %5) #13
  call void @llvm.lifetime.end.p0(i64 8, ptr %4) #13
  call void @llvm.lifetime.end.p0(i64 2, ptr %3) #13
  ret i16 %24
}

; Function Attrs: nounwind uwtable
define internal i32 @cdf_namecmp(ptr noundef %0, ptr noundef %1, i64 noundef %2) #0 {
  %4 = alloca i32, align 4
  %5 = alloca ptr, align 8
  %6 = alloca ptr, align 8
  %7 = alloca i64, align 8
  store ptr %0, ptr %5, align 8, !tbaa !9
  store ptr %1, ptr %6, align 8, !tbaa !61
  store i64 %2, ptr %7, align 8, !tbaa !14
  br label %8

8:                                                ; preds = %53, %3
  %9 = load i64, ptr %7, align 8, !tbaa !14
  %10 = add i64 %9, -1
  store i64 %10, ptr %7, align 8, !tbaa !14
  %11 = icmp ne i64 %9, 0
  br i1 %11, label %12, label %58

12:                                               ; preds = %8
  %13 = load ptr, ptr %5, align 8, !tbaa !9
  %14 = load i8, ptr %13, align 1, !tbaa !8
  %15 = sext i8 %14 to i32
  %16 = load i32, ptr @cdf_bo, align 4, !tbaa !8
  %17 = icmp eq i32 %16, 16909060
  br i1 %17, label %18, label %23

18:                                               ; preds = %12
  %19 = load ptr, ptr %6, align 8, !tbaa !61
  %20 = load i16, ptr %19, align 2, !tbaa !4
  %21 = call zeroext i16 @_cdf_tole2(i16 noundef zeroext %20)
  %22 = zext i16 %21 to i32
  br label %27

23:                                               ; preds = %12
  %24 = load ptr, ptr %6, align 8, !tbaa !61
  %25 = load i16, ptr %24, align 2, !tbaa !4
  %26 = zext i16 %25 to i32
  br label %27

27:                                               ; preds = %23, %18
  %28 = phi i32 [ %22, %18 ], [ %26, %23 ]
  %29 = trunc i32 %28 to i16
  %30 = zext i16 %29 to i32
  %31 = icmp ne i32 %15, %30
  br i1 %31, label %32, label %52

32:                                               ; preds = %27
  %33 = load ptr, ptr %5, align 8, !tbaa !9
  %34 = load i8, ptr %33, align 1, !tbaa !8
  %35 = zext i8 %34 to i32
  %36 = load i32, ptr @cdf_bo, align 4, !tbaa !8
  %37 = icmp eq i32 %36, 16909060
  br i1 %37, label %38, label %43

38:                                               ; preds = %32
  %39 = load ptr, ptr %6, align 8, !tbaa !61
  %40 = load i16, ptr %39, align 2, !tbaa !4
  %41 = call zeroext i16 @_cdf_tole2(i16 noundef zeroext %40)
  %42 = zext i16 %41 to i32
  br label %47

43:                                               ; preds = %32
  %44 = load ptr, ptr %6, align 8, !tbaa !61
  %45 = load i16, ptr %44, align 2, !tbaa !4
  %46 = zext i16 %45 to i32
  br label %47

47:                                               ; preds = %43, %38
  %48 = phi i32 [ %42, %38 ], [ %46, %43 ]
  %49 = trunc i32 %48 to i16
  %50 = zext i16 %49 to i32
  %51 = sub nsw i32 %35, %50
  store i32 %51, ptr %4, align 4
  br label %59

52:                                               ; preds = %27
  br label %53

53:                                               ; preds = %52
  %54 = load ptr, ptr %5, align 8, !tbaa !9
  %55 = getelementptr inbounds nuw i8, ptr %54, i32 1
  store ptr %55, ptr %5, align 8, !tbaa !9
  %56 = load ptr, ptr %6, align 8, !tbaa !61
  %57 = getelementptr inbounds nuw i16, ptr %56, i32 1
  store ptr %57, ptr %6, align 8, !tbaa !61
  br label %8

58:                                               ; preds = %8
  store i32 0, ptr %4, align 4
  br label %59

59:                                               ; preds = %58, %47
  %60 = load i32, ptr %4, align 4
  ret i32 %60
}

; Function Attrs: nounwind uwtable
define hidden i32 @cdf_find_stream(ptr noundef %0, ptr noundef %1, i32 noundef %2) #0 {
  %4 = alloca i32, align 4
  %5 = alloca ptr, align 8
  %6 = alloca ptr, align 8
  %7 = alloca i32, align 4
  %8 = alloca i64, align 8
  %9 = alloca i64, align 8
  %10 = alloca i32, align 4
  store ptr %0, ptr %5, align 8, !tbaa !16
  store ptr %1, ptr %6, align 8, !tbaa !9
  store i32 %2, ptr %7, align 4, !tbaa !12
  call void @llvm.lifetime.start.p0(i64 8, ptr %8) #13
  call void @llvm.lifetime.start.p0(i64 8, ptr %9) #13
  %11 = load ptr, ptr %6, align 8, !tbaa !9
  %12 = call i64 @strlen(ptr noundef %11) #17
  %13 = add i64 %12, 1
  store i64 %13, ptr %9, align 8, !tbaa !14
  %14 = load ptr, ptr %5, align 8, !tbaa !16
  %15 = getelementptr inbounds nuw %struct.cdf_dir_t, ptr %14, i32 0, i32 1
  %16 = load i64, ptr %15, align 8, !tbaa !57
  store i64 %16, ptr %8, align 8, !tbaa !14
  br label %17

17:                                               ; preds = %47, %3
  %18 = load i64, ptr %8, align 8, !tbaa !14
  %19 = icmp ugt i64 %18, 0
  br i1 %19, label %20, label %50

20:                                               ; preds = %17
  %21 = load ptr, ptr %5, align 8, !tbaa !16
  %22 = getelementptr inbounds nuw %struct.cdf_dir_t, ptr %21, i32 0, i32 0
  %23 = load ptr, ptr %22, align 8, !tbaa !59
  %24 = load i64, ptr %8, align 8, !tbaa !14
  %25 = sub i64 %24, 1
  %26 = getelementptr inbounds nuw %struct.cdf_directory_t, ptr %23, i64 %25
  %27 = getelementptr inbounds nuw %struct.cdf_directory_t, ptr %26, i32 0, i32 2
  %28 = load i8, ptr %27, align 2, !tbaa !60
  %29 = zext i8 %28 to i32
  %30 = load i32, ptr %7, align 4, !tbaa !12
  %31 = icmp eq i32 %29, %30
  br i1 %31, label %32, label %46

32:                                               ; preds = %20
  %33 = load ptr, ptr %6, align 8, !tbaa !9
  %34 = load ptr, ptr %5, align 8, !tbaa !16
  %35 = getelementptr inbounds nuw %struct.cdf_dir_t, ptr %34, i32 0, i32 0
  %36 = load ptr, ptr %35, align 8, !tbaa !59
  %37 = load i64, ptr %8, align 8, !tbaa !14
  %38 = sub i64 %37, 1
  %39 = getelementptr inbounds nuw %struct.cdf_directory_t, ptr %36, i64 %38
  %40 = getelementptr inbounds nuw %struct.cdf_directory_t, ptr %39, i32 0, i32 0
  %41 = getelementptr inbounds [32 x i16], ptr %40, i64 0, i64 0
  %42 = load i64, ptr %9, align 8, !tbaa !14
  %43 = call i32 @cdf_namecmp(ptr noundef %33, ptr noundef %41, i64 noundef %42)
  %44 = icmp eq i32 %43, 0
  br i1 %44, label %45, label %46

45:                                               ; preds = %32
  br label %50

46:                                               ; preds = %32, %20
  br label %47

47:                                               ; preds = %46
  %48 = load i64, ptr %8, align 8, !tbaa !14
  %49 = add i64 %48, -1
  store i64 %49, ptr %8, align 8, !tbaa !14
  br label %17

50:                                               ; preds = %45, %17
  %51 = load i64, ptr %8, align 8, !tbaa !14
  %52 = icmp ugt i64 %51, 0
  br i1 %52, label %53, label %56

53:                                               ; preds = %50
  %54 = load i64, ptr %8, align 8, !tbaa !14
  %55 = trunc i64 %54 to i32
  store i32 %55, ptr %4, align 4
  store i32 1, ptr %10, align 4
  br label %58

56:                                               ; preds = %50
  %57 = call ptr @__errno_location() #14
  store i32 3, ptr %57, align 4, !tbaa !12
  store i32 0, ptr %4, align 4
  store i32 1, ptr %10, align 4
  br label %58

58:                                               ; preds = %56, %53
  call void @llvm.lifetime.end.p0(i64 8, ptr %9) #13
  call void @llvm.lifetime.end.p0(i64 8, ptr %8) #13
  %59 = load i32, ptr %4, align 4
  ret i32 %59
}