; Function Attrs: nofree nounwind memory(readwrite, inaccessiblemem: none) uwtable
define hidden i32 @cdf_find_stream(ptr noundef readonly captures(none) %0, ptr noundef readonly captures(none) %1, i32 noundef %2) local_unnamed_addr #14 {
  %4 = tail call i64 @strlen(ptr noundef nonnull dereferenceable(1) %1) #25
  %.fr37 = freeze i64 %4
  %5 = getelementptr inbounds nuw i8, ptr %0, i64 8
  %6 = load i64, ptr %5, align 8, !tbaa !33
  %.not29 = icmp eq i64 %6, 0
  br i1 %.not29, label %.critedge, label %.lr.ph

.lr.ph:                                           ; preds = %3
  %7 = load ptr, ptr %0, align 8, !tbaa !35
  %.not21.i = icmp eq i64 %.fr37, -1
  br i1 %.not21.i, label %.lr.ph.split.us, label %.lr.ph.split.split

.lr.ph.split.us:                                  ; preds = %.lr.ph
  %invariant.gep = getelementptr i8, ptr %7, i64 -70
  br label %8

8:                                                ; preds = %12, %.lr.ph.split.us
  %.01330.us = phi i64 [ %6, %.lr.ph.split.us ], [ %13, %12 ]
  %gep = getelementptr %struct.cdf_directory_t, ptr %invariant.gep, i64 %.01330.us
  %9 = load i8, ptr %gep, align 2, !tbaa !38
  %10 = zext i8 %9 to i32
  %11 = icmp eq i32 %2, %10
  br i1 %11, label %cdf_namecmp.exit.thread, label %12

12:                                               ; preds = %8
  %13 = add i64 %.01330.us, -1
  %.not.us = icmp eq i64 %13, 0
  br i1 %.not.us, label %.critedge, label %8

.lr.ph.split.split:                               ; preds = %.lr.ph, %31
  %.01330 = phi i64 [ %32, %31 ], [ %6, %.lr.ph ]
  %14 = getelementptr %struct.cdf_directory_t, ptr %7, i64 %.01330
  %15 = getelementptr i8, ptr %14, i64 -70
  %16 = load i8, ptr %15, align 2, !tbaa !38
  %17 = zext i8 %16 to i32
  %18 = icmp eq i32 %2, %17
  br i1 %18, label %.lr.ph.i, label %31

.lr.ph.i:                                         ; preds = %.lr.ph.split.split
  %19 = getelementptr i8, ptr %14, i64 -136
  br label %.thread.i

.thread.i:                                        ; preds = %.lr.ph.i, %25
  %20 = phi i64 [ %28, %25 ], [ %.fr37, %.lr.ph.i ]
  %.0923.i = phi ptr [ %27, %25 ], [ %19, %.lr.ph.i ]
  %.01022.i = phi ptr [ %26, %25 ], [ %1, %.lr.ph.i ]
  %21 = load i8, ptr %.01022.i, align 1, !tbaa !42
  %22 = sext i8 %21 to i32
  %23 = load i16, ptr %.0923.i, align 2, !tbaa !43
  %24 = zext i16 %23 to i32
  %.not1216.i = icmp eq i32 %22, %24
  br i1 %.not1216.i, label %25, label %cdf_namecmp.exit.loopexit15

25:                                               ; preds = %.thread.i
  %26 = getelementptr inbounds nuw i8, ptr %.01022.i, i64 1
  %27 = getelementptr inbounds nuw i8, ptr %.0923.i, i64 2
  %28 = add i64 %20, -1
  %.not.i = icmp eq i64 %20, 0
  br i1 %.not.i, label %cdf_namecmp.exit.thread, label %.thread.i

cdf_namecmp.exit.loopexit15:                      ; preds = %.thread.i
  %29 = zext i8 %21 to i16
  %30 = icmp eq i16 %23, %29
  br i1 %30, label %cdf_namecmp.exit.thread, label %31

31:                                               ; preds = %.lr.ph.split.split, %cdf_namecmp.exit.loopexit15
  %32 = add i64 %.01330, -1
  %.not = icmp eq i64 %32, 0
  br i1 %.not, label %.critedge, label %.lr.ph.split.split

cdf_namecmp.exit.thread:                          ; preds = %cdf_namecmp.exit.loopexit15, %25, %8
  %.01328 = phi i64 [ %.01330.us, %8 ], [ %.01330, %25 ], [ %.01330, %cdf_namecmp.exit.loopexit15 ]
  %33 = trunc i64 %.01328 to i32
  br label %35

.critedge:                                        ; preds = %31, %12, %3
  %34 = tail call ptr @__errno_location() #22
  store i32 3, ptr %34, align 4, !tbaa !21
  br label %35

35:                                               ; preds = %.critedge, %cdf_namecmp.exit.thread
  %.0 = phi i32 [ %33, %cdf_namecmp.exit.thread ], [ 0, %.critedge ]
  ret i32 %.0
}